CCS PCM C Compiler, Version 4.104, 5967               05-mar-24 16:03

               Filename: C:\Users\JOICE\OneDrive\Documentos\Faculdade\microcontrolador\atividades\infraVermelho\infravermelho.lst

               ROM used: 144 words (2%)
                         Largest free fragment is 2048
               RAM used: 13 (4%) at main() level
                         13 (4%) worst case
               Stack:    1 worst case (0 in main + 1 for interrupts)

*
0000:  MOVLW  00
0001:  MOVWF  0A
0002:  GOTO   033
0003:  NOP
0004:  MOVWF  7F
0005:  SWAPF  03,W
0006:  CLRF   03
0007:  MOVWF  21
0008:  MOVF   0A,W
0009:  MOVWF  20
000A:  CLRF   0A
000B:  MOVF   04,W
000C:  MOVWF  22
000D:  MOVF   77,W
000E:  MOVWF  23
000F:  MOVF   78,W
0010:  MOVWF  24
0011:  MOVF   79,W
0012:  MOVWF  25
0013:  MOVF   7A,W
0014:  MOVWF  26
0015:  BCF    03.7
0016:  BCF    03.5
0017:  BTFSS  0B.4
0018:  GOTO   01B
0019:  BTFSC  0B.1
001A:  GOTO   02C
001B:  MOVF   22,W
001C:  MOVWF  04
001D:  MOVF   23,W
001E:  MOVWF  77
001F:  MOVF   24,W
0020:  MOVWF  78
0021:  MOVF   25,W
0022:  MOVWF  79
0023:  MOVF   26,W
0024:  MOVWF  7A
0025:  MOVF   20,W
0026:  MOVWF  0A
0027:  SWAPF  21,W
0028:  MOVWF  03
0029:  SWAPF  7F,F
002A:  SWAPF  7F,W
002B:  RETFIE
002C:  BCF    0A.3
002D:  BCF    0A.4
002E:  GOTO   02F
.................... #include "C:\Users\JOICE\OneDrive\Documentos\Faculdade\microcontrolador\atividades\infraVermelho\infravermelho.h" 
.................... #include <16F877A.h> 
.................... //////// Standard Header file for the PIC16F877A device //////////////// 
.................... #device PIC16F877A 
.................... #list 
....................  
.................... #device adc=8 
....................  
.................... #FUSES NOWDT                 	//No Watch Dog Timer 
.................... #FUSES HS                    	//High speed Osc (> 4mhz for PCM/PCH) (>10mhz for PCD) 
.................... #FUSES NOPUT                 	//No Power Up Timer 
.................... #FUSES NOPROTECT             	//Code not protected from reading 
.................... #FUSES NODEBUG               	//No Debug mode for ICD 
.................... #FUSES NOBROWNOUT            	//No brownout reset 
.................... #FUSES NOLVP                 	//No low voltage prgming, B3(PIC16) or B5(PIC18) used for I/O 
.................... #FUSES NOCPD                 	//No EE protection 
.................... #FUSES NOWRT                 	//Program memory not write protected 
.................... #FUSES RESERVED              	//Used to set the reserved FUSE bits 
....................  
.................... #use delay(clock=20000000) 
....................  
....................  
.................... #int_EXT 
.................... void  EXT_isr(void)  
.................... { 
....................  
.................... } 
....................  
....................  
....................  
*
002F:  BCF    0B.1
0030:  BCF    0A.3
0031:  BCF    0A.4
0032:  GOTO   01B
.................... void main() 
.................... { 
0033:  CLRF   04
0034:  BCF    03.7
0035:  MOVLW  1F
0036:  ANDWF  03,F
0037:  BSF    03.5
0038:  BSF    1F.0
0039:  BSF    1F.1
003A:  BSF    1F.2
003B:  BCF    1F.3
003C:  MOVLW  07
003D:  MOVWF  1C
....................  
....................    setup_adc_ports(NO_ANALOGS); 
*
0041:  BSF    03.5
0042:  BSF    1F.0
0043:  BSF    1F.1
0044:  BSF    1F.2
0045:  BCF    1F.3
....................    setup_adc(ADC_CLOCK_DIV_2); 
0046:  BCF    1F.6
0047:  BCF    03.5
0048:  BCF    1F.6
0049:  BCF    1F.7
004A:  BSF    03.5
004B:  BCF    1F.7
004C:  BCF    03.5
004D:  BSF    1F.0
....................    setup_psp(PSP_DISABLED); 
004E:  BSF    03.5
004F:  BCF    09.4
....................    setup_spi(SPI_SS_DISABLED); 
0050:  BCF    03.5
0051:  BCF    14.5
0052:  BCF    27.5
0053:  MOVF   27,W
0054:  BSF    03.5
0055:  MOVWF  07
0056:  BCF    03.5
0057:  BSF    27.4
0058:  MOVF   27,W
0059:  BSF    03.5
005A:  MOVWF  07
005B:  BCF    03.5
005C:  BCF    27.3
005D:  MOVF   27,W
005E:  BSF    03.5
005F:  MOVWF  07
0060:  MOVLW  01
0061:  BCF    03.5
0062:  MOVWF  14
0063:  MOVLW  00
0064:  BSF    03.5
0065:  MOVWF  14
....................    setup_timer_0(RTCC_INTERNAL|RTCC_DIV_1); 
0066:  MOVF   01,W
0067:  ANDLW  C7
0068:  IORLW  08
0069:  MOVWF  01
....................    setup_timer_1(T1_INTERNAL|T1_DIV_BY_1); 
006A:  MOVLW  85
006B:  BCF    03.5
006C:  MOVWF  10
....................    setup_timer_2(T2_DISABLED,0,1); 
006D:  MOVLW  00
006E:  MOVWF  78
006F:  MOVWF  12
0070:  MOVLW  00
0071:  BSF    03.5
0072:  MOVWF  12
....................    setup_ccp1(CCP_CAPTURE_FE); 
0073:  BCF    03.5
0074:  BSF    27.2
0075:  MOVF   27,W
0076:  BSF    03.5
0077:  MOVWF  07
0078:  BCF    03.5
0079:  CLRF   17
007A:  MOVLW  04
007B:  MOVWF  17
....................    setup_comparator(NC_NC_NC_NC); 
007C:  MOVLW  07
007D:  BSF    03.5
007E:  MOVWF  1C
007F:  MOVF   05,W
0080:  MOVWF  05
0081:  MOVLW  10
0082:  MOVWF  77
0083:  DECFSZ 77,F
0084:  GOTO   083
0085:  NOP
0086:  MOVF   1C,W
0087:  BCF    03.5
0088:  BCF    0D.6
....................    setup_vref(FALSE); 
0089:  BSF    03.5
008A:  CLRF   1D
....................    enable_interrupts(INT_EXT); 
008B:  BCF    03.5
008C:  BSF    0B.4
....................    enable_interrupts(GLOBAL); 
008D:  MOVLW  C0
008E:  IORWF  0B,F
....................  
....................    // TODO: USER CODE!! 
....................  
.................... } 
008F:  SLEEP

Configuration Fuses:
   Word  1: 3F3A   HS NOWDT NOPUT NODEBUG NOPROTECT NOBROWNOUT NOLVP NOCPD NOWRT
