CCS PCM C Compiler, Version 4.104, 5967               16-jul-24 16:53

               Filename: C:\Users\JOICE\OneDrive\Documentos\Faculdade\microcontrolador\Trabalho\teste\teste.lst

               ROM used: 1510 words (18%)
                         Largest free fragment is 2048
               RAM used: 21 (6%) at main() level
                         48 (13%) worst case
               Stack:    6 locations

*
0000:  MOVLW  05
0001:  MOVWF  0A
0002:  GOTO   588
0003:  NOP
.................... //#include "C:\Users\JOICE\OneDrive\Documentos\Faculdade\microcontrolador\atividades\lcdI2C\lcd.h" 
....................  
.................... #include <16F877A.h> 
.................... //////// Standard Header file for the PIC16F877A device //////////////// 
.................... #device PIC16F877A 
.................... #list 
....................  
.................... #device adc=8 
....................  
.................... #FUSES NOWDT                    //No Watch Dog Timer 
.................... #FUSES HS                       //High speed Osc (> 4mhz for PCM/PCH) (>10mhz for PCD) 
.................... #FUSES NOPUT                    //No Power Up Timer 
.................... #FUSES NOPROTECT                //Code not protected from reading 
.................... #FUSES NODEBUG                  //No Debug mode for ICD 
.................... #FUSES NOBROWNOUT               //No brownout reset 
.................... #FUSES NOLVP                    //No low voltage prgming, B3(PIC16) or B5(PIC18) used for I/O 
.................... #FUSES NOCPD                    //No EE protection 
.................... #FUSES NOWRT                    //Program memory not write protected 
.................... #FUSES RESERVED                 //Used to set the reserved FUSE bits 
....................  
.................... #use delay(clock=6000000) 
*
0017:  MOVLW  3D
0018:  MOVWF  04
0019:  BCF    03.7
001A:  MOVF   00,W
001B:  BTFSC  03.2
001C:  GOTO   02B
001D:  MOVLW  01
001E:  MOVWF  78
001F:  CLRF   77
0020:  DECFSZ 77,F
0021:  GOTO   020
0022:  DECFSZ 78,F
0023:  GOTO   01F
0024:  MOVLW  F1
0025:  MOVWF  77
0026:  DECFSZ 77,F
0027:  GOTO   026
0028:  NOP
0029:  DECFSZ 00,F
002A:  GOTO   01D
002B:  RETURN
....................  
.................... #use i2c(Master,Fast=100000, sda=PIN_C4, scl=PIN_C3,force_sw)   
002C:  MOVLW  08
002D:  MOVWF  78
002E:  NOP
002F:  BCF    07.3
0030:  BCF    20.3
0031:  MOVF   20,W
0032:  BSF    03.5
0033:  MOVWF  07
0034:  NOP
0035:  BCF    03.5
0036:  RLF    4A,F
0037:  BCF    07.4
0038:  BTFSS  03.0
0039:  GOTO   040
003A:  BSF    20.4
003B:  MOVF   20,W
003C:  BSF    03.5
003D:  MOVWF  07
003E:  GOTO   044
003F:  BCF    03.5
0040:  BCF    20.4
0041:  MOVF   20,W
0042:  BSF    03.5
0043:  MOVWF  07
0044:  NOP
0045:  BCF    03.5
0046:  BSF    20.3
0047:  MOVF   20,W
0048:  BSF    03.5
0049:  MOVWF  07
004A:  BCF    03.5
004B:  BTFSS  07.3
004C:  GOTO   04B
004D:  DECFSZ 78,F
004E:  GOTO   02E
004F:  NOP
0050:  BCF    07.3
0051:  BCF    20.3
0052:  MOVF   20,W
0053:  BSF    03.5
0054:  MOVWF  07
0055:  NOP
0056:  BCF    03.5
0057:  BSF    20.4
0058:  MOVF   20,W
0059:  BSF    03.5
005A:  MOVWF  07
005B:  NOP
005C:  NOP
005D:  BCF    03.5
005E:  BSF    20.3
005F:  MOVF   20,W
0060:  BSF    03.5
0061:  MOVWF  07
0062:  BCF    03.5
0063:  BTFSS  07.3
0064:  GOTO   063
0065:  CLRF   78
0066:  NOP
0067:  BTFSC  07.4
0068:  BSF    78.0
0069:  BCF    07.3
006A:  BCF    20.3
006B:  MOVF   20,W
006C:  BSF    03.5
006D:  MOVWF  07
006E:  BCF    03.5
006F:  BCF    07.4
0070:  BCF    20.4
0071:  MOVF   20,W
0072:  BSF    03.5
0073:  MOVWF  07
0074:  BCF    03.5
0075:  RETURN
.................... #include "i2c_Flex_LCD.c" 
.................... //-----------------------------------------------------------------------------  
.................... // Title:         i2c_Flex_LCD  
.................... // Description:   Driver for common LCD with 1/2/3 or 4 rows by 1...20 columns  
.................... //                using PCF8574T interface board with I2C protocol.  
.................... // Date:          Nov-2013  
.................... // Ver.Rev.:      1.1  
.................... // Author:        Hugo Silva (sergio-hugo@bol.com.br) #Based on the routines of  
.................... //                "20X4_LCD_I2C_DRIVER.h" from Pumrin S. and "lcd4_i2c.c" from XP8100  
.................... //-----------------------------------------------------------------------------  
.................... //  
.................... // lcd_init() Must be called before any other function.  
.................... //  
.................... // lcd_putc(c) Will display c on the next position of the LCD.  
.................... //   
.................... //     \f Clear LCD display  
.................... //     \n Set write position on next lcd line  
.................... //     \b LCD backspace  
.................... //     lcd_gotoxy(x,y) Set write position on LCD (upper left is 1,1)  
.................... //  
.................... // lcd_backlight_led(ON)/lcd_backlight_led(OFF) = Turn ON/OFF LCD Backlight LED  
.................... //  
.................... //-----------------------------------------------------------------------------  
.................... // LCD pins D0-D3 are not used.  
.................... //-----------------------------------------------------------------------------  
.................... //  
.................... // Comment   : Control of a compatible LCD (1...4 rows by 1...4 columns) from  
.................... //              a bus I2C with an EXPANDER of I/O with connection I2C.  
.................... //              The tests of these routines have been programmed using the IC  
.................... //              Phillips PCF8574T. I've used 4 bits mode programming.  
.................... //              The 8 bits mode programming is possible if you use 2 x PCF8574T.  
.................... //              RW Pin is not being used.  
.................... //  
.................... // As defined in the following structure the pin connection is as follows:  
.................... //  
.................... //  PCF8574P     LCD  
.................... //  ========     ======  
.................... //     P0        RS  
.................... //     P1        RW    (Not used!)  
.................... //     P2        Enable   
.................... //     P3        Led Backlight  
.................... //     P4        D4  
.................... //     P5        D5  
.................... //     P6        D6  
.................... //     P7        D7  
.................... //  
.................... //  The SCL and SDA pins should be pull-up resistor as shown below:  
.................... //  
.................... //             +5v  
.................... //               |  
.................... //               <  
.................... //               > 4.7K         
.................... //               <           
.................... //To PIC         |          To i2c slave  
.................... //pin xx ------------------ SDA pin   
.................... //(SDA)                       
.................... //              +5v  
.................... //               |  
.................... //               <  
.................... //               > 4.7K         
.................... //               <           
.................... //To PIC         |          To i2c slave  
.................... //pin xx ------------------ SCL pin   
.................... //(SCL)  
.................... //  
.................... //To PIC                    To i2c slave  
.................... //Vss pin ----------------- Vss or ground pin   
.................... //                |  
.................... //              -----  
.................... //               ---  Ground  
.................... //                -   
.................... //   
.................... // THIS DOCUMENT IS PROVIDED TO THE USER "AS IS"  
.................... //-----------------------------------------------------------------------------  
.................... byte LCD_ADDR ;//             0x4E        //I2C slave address for LCD module  
.................... byte lcd_total_rows ;//       2           //Number of rows: 1,2,3 or 4  
.................... byte lcd_total_columns ;//    16          //Number of columns: 1...20    
....................  
.................... #define RS                    0b00000001  //P0 - PCF8574T Pin connected to RS  
.................... #define RW                    0b00000010  //P1 - PCF8574T Pin connected to RW  
.................... #define ENABLE                0b00000100  //P2 - PCF8574T Pin connected to EN  
.................... #define LCD_BACKLIGHT         0b00001000  //P3 - PCF8574T Pin connected to BACKLIGHT LED  
....................  
.................... #define addr_row_one          0x00        //LCD RAM address for row 1  
.................... #define addr_row_two          0x40        //LCD RAM address for row 2  
.................... #define addr_row_three        0x14        //LCD RAM address for row 3  
.................... #define addr_row_four         0x54        //LCD RAM address for row 4  
....................  
.................... #define ON                    1  
.................... #define OFF                   0  
.................... #define NOT                   ~  
.................... #define data_shifted          data<<4  
.................... int8 new_row_request=1, BACKLIGHT_LED=LCD_BACKLIGHT;  
....................  
.................... void lcd_backlight_led(byte bl)  
.................... {   
....................       If (bl) BACKLIGHT_LED=LCD_BACKLIGHT; else BACKLIGHT_LED=OFF;  
*
0181:  MOVF   2F,F
0182:  BTFSC  03.2
0183:  GOTO   187
0184:  MOVLW  08
0185:  MOVWF  25
0186:  GOTO   188
0187:  CLRF   25
.................... }  
0188:  BCF    0A.3
0189:  BCF    0A.4
018A:  GOTO   5B0 (RETURN)
....................  
.................... void i2c_send_nibble(byte data, byte type)  
.................... {     
....................    switch (type)  
....................    {       
*
0076:  MOVF   48,W
0077:  XORLW  00
0078:  BTFSC  03.2
0079:  GOTO   07E
007A:  XORLW  01
007B:  BTFSC  03.2
007C:  GOTO   09F
007D:  GOTO   0C2
....................       case 0 :       
....................       i2c_write(data_shifted | BACKLIGHT_LED);  
007E:  SWAPF  47,W
007F:  MOVWF  77
0080:  MOVLW  F0
0081:  ANDWF  77,F
0082:  MOVF   77,W
0083:  IORWF  25,W
0084:  MOVWF  49
0085:  MOVWF  4A
0086:  CALL   02C
....................       delay_cycles(1);  
0087:  NOP
....................       i2c_write(data_shifted | ENABLE | BACKLIGHT_LED );  
0088:  SWAPF  47,W
0089:  MOVWF  77
008A:  MOVLW  F0
008B:  ANDWF  77,F
008C:  MOVF   77,W
008D:  IORLW  04
008E:  IORWF  25,W
008F:  MOVWF  49
0090:  MOVWF  4A
0091:  CALL   02C
....................       delay_us(2);  
0092:  GOTO   093
0093:  NOP
....................       i2c_write(data_shifted & NOT ENABLE | BACKLIGHT_LED);  
0094:  SWAPF  47,W
0095:  MOVWF  77
0096:  MOVLW  F0
0097:  ANDWF  77,F
0098:  MOVF   77,W
0099:  ANDLW  FB
009A:  IORWF  25,W
009B:  MOVWF  49
009C:  MOVWF  4A
009D:  CALL   02C
....................       break;  
009E:  GOTO   0C2
....................        
....................       case 1 :  
....................       i2c_write(data_shifted | RS | BACKLIGHT_LED);  
009F:  SWAPF  47,W
00A0:  MOVWF  77
00A1:  MOVLW  F0
00A2:  ANDWF  77,F
00A3:  MOVF   77,W
00A4:  IORLW  01
00A5:  IORWF  25,W
00A6:  MOVWF  49
00A7:  MOVWF  4A
00A8:  CALL   02C
....................       delay_cycles(1);  
00A9:  NOP
....................       i2c_write(data_shifted | RS | ENABLE | BACKLIGHT_LED );  
00AA:  SWAPF  47,W
00AB:  MOVWF  77
00AC:  MOVLW  F0
00AD:  ANDWF  77,F
00AE:  MOVF   77,W
00AF:  IORLW  01
00B0:  IORLW  04
00B1:  IORWF  25,W
00B2:  MOVWF  49
00B3:  MOVWF  4A
00B4:  CALL   02C
....................       delay_us(2);  
00B5:  GOTO   0B6
00B6:  NOP
....................       i2c_write(data_shifted | RS | BACKLIGHT_LED);  
00B7:  SWAPF  47,W
00B8:  MOVWF  77
00B9:  MOVLW  F0
00BA:  ANDWF  77,F
00BB:  MOVF   77,W
00BC:  IORLW  01
00BD:  IORWF  25,W
00BE:  MOVWF  49
00BF:  MOVWF  4A
00C0:  CALL   02C
....................       break;  
00C1:  GOTO   0C2
....................    }  
.................... }  
00C2:  RETURN
....................      
.................... void lcd_send_byte(byte data, byte type)  
....................    {  
....................         i2c_start();  
00C3:  BSF    20.4
00C4:  MOVF   20,W
00C5:  BSF    03.5
00C6:  MOVWF  07
00C7:  NOP
00C8:  BCF    03.5
00C9:  BSF    20.3
00CA:  MOVF   20,W
00CB:  BSF    03.5
00CC:  MOVWF  07
00CD:  NOP
00CE:  BCF    03.5
00CF:  BCF    07.4
00D0:  BCF    20.4
00D1:  MOVF   20,W
00D2:  BSF    03.5
00D3:  MOVWF  07
00D4:  NOP
00D5:  BCF    03.5
00D6:  BCF    07.3
00D7:  BCF    20.3
00D8:  MOVF   20,W
00D9:  BSF    03.5
00DA:  MOVWF  07
....................         i2c_write(LCD_ADDR);  
00DB:  BCF    03.5
00DC:  MOVF   21,W
00DD:  MOVWF  4A
00DE:  CALL   02C
....................         i2c_send_nibble(data >> 4 , type);  
00DF:  SWAPF  44,W
00E0:  MOVWF  46
00E1:  MOVLW  0F
00E2:  ANDWF  46,F
00E3:  MOVF   46,W
00E4:  MOVWF  47
00E5:  MOVF   45,W
00E6:  MOVWF  48
00E7:  CALL   076
....................         i2c_send_nibble(data & 0xf , type);  
00E8:  MOVF   44,W
00E9:  ANDLW  0F
00EA:  MOVWF  46
00EB:  MOVWF  47
00EC:  MOVF   45,W
00ED:  MOVWF  48
00EE:  CALL   076
....................         i2c_stop();         
00EF:  BCF    20.4
00F0:  MOVF   20,W
00F1:  BSF    03.5
00F2:  MOVWF  07
00F3:  NOP
00F4:  BCF    03.5
00F5:  BSF    20.3
00F6:  MOVF   20,W
00F7:  BSF    03.5
00F8:  MOVWF  07
00F9:  BCF    03.5
00FA:  BTFSS  07.3
00FB:  GOTO   0FA
00FC:  NOP
00FD:  GOTO   0FE
00FE:  NOP
00FF:  BSF    20.4
0100:  MOVF   20,W
0101:  BSF    03.5
0102:  MOVWF  07
0103:  NOP
....................    }  
0104:  BCF    03.5
0105:  RETURN
....................  
.................... void lcd_clear()  
.................... {   
....................         lcd_send_byte(0x01,0);  
0106:  MOVLW  01
0107:  MOVWF  44
0108:  CLRF   45
0109:  CALL   0C3
....................         delay_ms(2);  
010A:  MOVLW  02
010B:  MOVWF  3D
010C:  CALL   017
....................         new_row_request=1;  
010D:  MOVLW  01
010E:  MOVWF  24
.................... }  
010F:  RETURN
....................  
.................... void lcd_init(byte ADDR, byte col, byte row)  
.................... {  
....................    byte i; 
....................    byte CONST lcd_type=2;  // 0=5x7, 1=5x10, 2=2 lines  
....................    byte CONST LCD_INIT_STRING[4] = {0x20 | (lcd_type << 2), 0xc, 1, 6}; // These bytes need to be sent to the LCD to start it up. 
....................     
....................    LCD_ADDR =ADDR;//             0x4E        //I2C slave address for LCD module  
0110:  MOVF   2F,W
0111:  MOVWF  21
....................    lcd_total_rows =row;//       2           //Number of rows: 1,2,3 or 4  
0112:  MOVF   31,W
0113:  MOVWF  22
....................    lcd_total_columns= col ; 
0114:  MOVF   30,W
0115:  MOVWF  23
....................    disable_interrupts(GLOBAL);  
0116:  BCF    0B.6
0117:  BCF    0B.7
0118:  BTFSC  0B.7
0119:  GOTO   117
....................    delay_ms(50); //LCD power up delay  
011A:  MOVLW  32
011B:  MOVWF  3D
011C:  CALL   017
....................      
....................    i2c_start();  
011D:  BSF    20.4
011E:  MOVF   20,W
011F:  BSF    03.5
0120:  MOVWF  07
0121:  NOP
0122:  BCF    03.5
0123:  BSF    20.3
0124:  MOVF   20,W
0125:  BSF    03.5
0126:  MOVWF  07
0127:  NOP
0128:  BCF    03.5
0129:  BCF    07.4
012A:  BCF    20.4
012B:  MOVF   20,W
012C:  BSF    03.5
012D:  MOVWF  07
012E:  NOP
012F:  BCF    03.5
0130:  BCF    07.3
0131:  BCF    20.3
0132:  MOVF   20,W
0133:  BSF    03.5
0134:  MOVWF  07
....................    i2c_write(LCD_ADDR);  
0135:  BCF    03.5
0136:  MOVF   21,W
0137:  MOVWF  4A
0138:  CALL   02C
....................       i2c_send_nibble(0x00,0);  
0139:  CLRF   47
013A:  CLRF   48
013B:  CALL   076
....................       delay_ms(15);  
013C:  MOVLW  0F
013D:  MOVWF  3D
013E:  CALL   017
....................      
....................    for (i=1;i<=3;++i)     
013F:  MOVLW  01
0140:  MOVWF  32
0141:  MOVF   32,W
0142:  SUBLW  03
0143:  BTFSS  03.0
0144:  GOTO   14E
....................    {  
....................       i2c_send_nibble(0x03,0);  
0145:  MOVLW  03
0146:  MOVWF  47
0147:  CLRF   48
0148:  CALL   076
....................       delay_ms(5);  
0149:  MOVLW  05
014A:  MOVWF  3D
014B:  CALL   017
....................    }     
014C:  INCF   32,F
014D:  GOTO   141
....................       i2c_send_nibble(0x02,0);  
014E:  MOVLW  02
014F:  MOVWF  47
0150:  CLRF   48
0151:  CALL   076
....................       delay_ms(5);  
0152:  MOVLW  05
0153:  MOVWF  3D
0154:  CALL   017
....................    i2c_stop();  
0155:  BCF    20.4
0156:  MOVF   20,W
0157:  BSF    03.5
0158:  MOVWF  07
0159:  NOP
015A:  BCF    03.5
015B:  BSF    20.3
015C:  MOVF   20,W
015D:  BSF    03.5
015E:  MOVWF  07
015F:  BCF    03.5
0160:  BTFSS  07.3
0161:  GOTO   160
0162:  NOP
0163:  GOTO   164
0164:  NOP
0165:  BSF    20.4
0166:  MOVF   20,W
0167:  BSF    03.5
0168:  MOVWF  07
0169:  NOP
....................      
....................    for (i=0;i<=3;++i) {  
016A:  BCF    03.5
016B:  CLRF   32
016C:  MOVF   32,W
016D:  SUBLW  03
016E:  BTFSS  03.0
016F:  GOTO   17B
....................    lcd_send_byte(LCD_INIT_STRING[i],0);  
0170:  MOVF   32,W
0171:  CALL   004
0172:  MOVWF  33
0173:  MOVWF  44
0174:  CLRF   45
0175:  CALL   0C3
....................    delay_ms(5);  
0176:  MOVLW  05
0177:  MOVWF  3D
0178:  CALL   017
....................    }  
0179:  INCF   32,F
017A:  GOTO   16C
....................    lcd_clear();  //Clear Display  
017B:  CALL   106
....................    enable_interrupts(GLOBAL);  
017C:  MOVLW  C0
017D:  IORWF  0B,F
.................... }  
017E:  BCF    0A.3
017F:  BCF    0A.4
0180:  GOTO   5AD (RETURN)
....................  
.................... void lcd_gotoxy( byte x, byte y)  
.................... {  
.................... byte row,column,row_addr,lcd_address;  
.................... static char data;  
*
05A5:  CLRF   26
....................  
....................    if (y>lcd_total_rows) row=lcd_total_rows; else row=y;  
*
03D3:  MOVF   3E,W
03D4:  SUBWF  22,W
03D5:  BTFSC  03.0
03D6:  GOTO   3DA
03D7:  MOVF   22,W
03D8:  MOVWF  3F
03D9:  GOTO   3DC
03DA:  MOVF   3E,W
03DB:  MOVWF  3F
....................    
....................    switch(row)  
....................    {  
03DC:  MOVF   3F,W
03DD:  XORLW  01
03DE:  BTFSC  03.2
03DF:  GOTO   3EA
03E0:  XORLW  03
03E1:  BTFSC  03.2
03E2:  GOTO   3EC
03E3:  XORLW  01
03E4:  BTFSC  03.2
03E5:  GOTO   3EF
03E6:  XORLW  07
03E7:  BTFSC  03.2
03E8:  GOTO   3F2
03E9:  GOTO   3F5
....................       case 1:  row_addr=addr_row_one;     break;  
03EA:  CLRF   41
03EB:  GOTO   3F7
....................       case 2:  row_addr=addr_row_two;     break;  
03EC:  MOVLW  40
03ED:  MOVWF  41
03EE:  GOTO   3F7
....................       case 3:  row_addr=addr_row_three;   break;  
03EF:  MOVLW  14
03F0:  MOVWF  41
03F1:  GOTO   3F7
....................       case 4:  row_addr=addr_row_four;    break;  
03F2:  MOVLW  54
03F3:  MOVWF  41
03F4:  GOTO   3F7
....................       default: row_addr=addr_row_one;     break;   
03F5:  CLRF   41
03F6:  GOTO   3F7
....................    }   
....................      
....................    if (x>lcd_total_columns) column=lcd_total_columns; else column=x;   
03F7:  MOVF   3D,W
03F8:  SUBWF  23,W
03F9:  BTFSC  03.0
03FA:  GOTO   3FE
03FB:  MOVF   23,W
03FC:  MOVWF  40
03FD:  GOTO   400
03FE:  MOVF   3D,W
03FF:  MOVWF  40
....................    lcd_address=(row_addr+(column-1));  
0400:  MOVLW  01
0401:  SUBWF  40,W
0402:  ADDWF  41,W
0403:  MOVWF  42
....................    lcd_send_byte(0x80|lcd_address,0);  
0404:  MOVF   42,W
0405:  IORLW  80
0406:  MOVWF  43
0407:  MOVWF  44
0408:  CLRF   45
0409:  CALL   0C3
.................... }  
....................  
.................... //Display the character on LCD screen.  
.................... void LCD_PUTC(char in_data)  
.................... {     
....................   switch(in_data)  
....................    {   
*
03BB:  MOVF   3C,W
03BC:  XORLW  0C
03BD:  BTFSC  03.2
03BE:  GOTO   3C6
03BF:  XORLW  06
03C0:  BTFSC  03.2
03C1:  GOTO   3C8
03C2:  XORLW  02
03C3:  BTFSC  03.2
03C4:  GOTO   40B
03C5:  GOTO   410
....................      case '\f': lcd_clear();                       break;                 
03C6:  CALL   106
03C7:  GOTO   416
....................        
....................      case '\n':  
....................      new_row_request++;  
03C8:  INCF   24,F
....................      if (new_row_request>lcd_total_rows) new_row_request=1;  
03C9:  MOVF   24,W
03CA:  SUBWF  22,W
03CB:  BTFSC  03.0
03CC:  GOTO   3CF
03CD:  MOVLW  01
03CE:  MOVWF  24
....................      lcd_gotoxy(1, new_row_request);  
03CF:  MOVLW  01
03D0:  MOVWF  3D
03D1:  MOVF   24,W
03D2:  MOVWF  3E
....................      break;  
*
040A:  GOTO   416
....................                    
....................      case '\b': lcd_send_byte(0x10,0);             break;  
040B:  MOVLW  10
040C:  MOVWF  44
040D:  CLRF   45
040E:  CALL   0C3
040F:  GOTO   416
....................          
....................      default: lcd_send_byte(in_data,1);            break;       
0410:  MOVF   3C,W
0411:  MOVWF  44
0412:  MOVLW  01
0413:  MOVWF  45
0414:  CALL   0C3
0415:  GOTO   416
....................        
....................    }  
.................... }  
0416:  RETURN
....................  
....................  
.................... int32 fosc = 6000000; 
.................... #define P_ECHO PIN_D0 
.................... #define P_TRIG PIN_D1 
.................... #include "HCSR04.c" 
.................... /* #include <HCSR04.c> 
.................... * 
.................... * Creada por: Ing. Abiezer Hernandez O. 
.................... * Fecha de creacion: 21/02/2018 
.................... * Electronica y Circuitos 
.................... * 
.................... */ 
....................  
.................... void HCSR04_init(void) 
.................... { 
....................    setup_timer_1(T1_INTERNAL | T1_DIV_BY_8); 
*
018B:  MOVLW  B5
018C:  MOVWF  10
....................    output_float(P_ECHO); 
018D:  BSF    03.5
018E:  BSF    08.0
....................    output_drive(P_TRIG); 
018F:  BCF    08.1
....................    output_low(P_TRIG); 
0190:  BCF    08.1
0191:  BCF    03.5
0192:  BCF    08.1
.................... } 
0193:  BCF    0A.3
0194:  BCF    0A.4
0195:  GOTO   5B1 (RETURN)
....................  
.................... float HCSR04_get_distance(void) 
.................... { 
*
02D5:  CLRF   30
02D6:  CLRF   2F
02D7:  CLRF   34
02D8:  CLRF   33
02D9:  CLRF   32
02DA:  CLRF   31
02DB:  CLRF   38
02DC:  CLRF   37
02DD:  CLRF   36
02DE:  CLRF   35
....................    int16 tiempo_eco=0; 
....................    float distancia=0; 
....................    float tick = 0; 
....................    tick = (4000.0 / FOSC) * 8.0; 
02DF:  MOVF   2A,W
02E0:  MOVWF  3C
02E1:  MOVF   29,W
02E2:  MOVWF  3B
02E3:  MOVF   28,W
02E4:  MOVWF  3A
02E5:  MOVF   27,W
02E6:  MOVWF  39
*
0301:  CLRF   3C
0302:  CLRF   3B
0303:  MOVLW  7A
0304:  MOVWF  3A
0305:  MOVLW  8A
0306:  MOVWF  39
0307:  MOVF   7A,W
0308:  MOVWF  40
0309:  MOVF   79,W
030A:  MOVWF  3F
030B:  MOVF   78,W
030C:  MOVWF  3E
030D:  MOVF   77,W
030E:  MOVWF  3D
030F:  CALL   196
0310:  MOVF   77,W
0311:  MOVWF  39
0312:  MOVF   78,W
0313:  MOVWF  3A
0314:  MOVF   79,W
0315:  MOVWF  3B
0316:  MOVF   7A,W
0317:  MOVWF  3C
0318:  MOVWF  40
0319:  MOVF   79,W
031A:  MOVWF  3F
031B:  MOVF   78,W
031C:  MOVWF  3E
031D:  MOVF   77,W
031E:  MOVWF  3D
031F:  CLRF   44
0320:  CLRF   43
0321:  CLRF   42
0322:  MOVLW  82
0323:  MOVWF  41
0324:  CALL   260
0325:  MOVF   7A,W
0326:  MOVWF  38
0327:  MOVF   79,W
0328:  MOVWF  37
0329:  MOVF   78,W
032A:  MOVWF  36
032B:  MOVF   77,W
032C:  MOVWF  35
....................    output_high(P_TRIG);  
032D:  BSF    03.5
032E:  BCF    08.1
032F:  BCF    03.5
0330:  BSF    08.1
....................    delay_us(10); 
0331:  MOVLW  04
0332:  MOVWF  77
0333:  DECFSZ 77,F
0334:  GOTO   333
0335:  GOTO   336
....................    output_low(P_TRIG); 
0336:  BSF    03.5
0337:  BCF    08.1
0338:  BCF    03.5
0339:  BCF    08.1
....................    while(!input_state(P_ECHO)); 
033A:  BTFSS  08.0
033B:  GOTO   33A
....................    set_timer1(0);  
033C:  CLRF   0F
033D:  CLRF   0E
....................    while(input_state(P_ECHO)); 
033E:  BTFSC  08.0
033F:  GOTO   33E
....................    tiempo_eco = get_timer1(); 
0340:  MOVF   0F,W
0341:  MOVWF  7A
0342:  MOVF   0E,W
0343:  MOVWF  77
0344:  MOVF   0F,W
0345:  SUBWF  7A,W
0346:  BTFSS  03.2
0347:  GOTO   340
0348:  MOVF   77,W
0349:  MOVWF  2F
034A:  MOVF   7A,W
034B:  MOVWF  30
....................    distancia = (tiempo_eco/2.0)*tick*34.0; 
034C:  MOVF   30,W
034D:  MOVWF  3A
034E:  MOVF   2F,W
034F:  MOVWF  39
*
036C:  MOVF   7A,W
036D:  MOVWF  3C
036E:  MOVF   79,W
036F:  MOVWF  3B
0370:  MOVF   78,W
0371:  MOVWF  3A
0372:  MOVF   77,W
0373:  MOVWF  39
0374:  CLRF   40
0375:  CLRF   3F
0376:  CLRF   3E
0377:  MOVLW  80
0378:  MOVWF  3D
0379:  CALL   196
037A:  MOVF   77,W
037B:  MOVWF  39
037C:  MOVF   78,W
037D:  MOVWF  3A
037E:  MOVF   79,W
037F:  MOVWF  3B
0380:  MOVF   7A,W
0381:  MOVWF  3C
0382:  MOVWF  40
0383:  MOVF   79,W
0384:  MOVWF  3F
0385:  MOVF   78,W
0386:  MOVWF  3E
0387:  MOVF   77,W
0388:  MOVWF  3D
0389:  MOVF   38,W
038A:  MOVWF  44
038B:  MOVF   37,W
038C:  MOVWF  43
038D:  MOVF   36,W
038E:  MOVWF  42
038F:  MOVF   35,W
0390:  MOVWF  41
0391:  CALL   260
0392:  MOVF   77,W
0393:  MOVWF  39
0394:  MOVF   78,W
0395:  MOVWF  3A
0396:  MOVF   79,W
0397:  MOVWF  3B
0398:  MOVF   7A,W
0399:  MOVWF  3C
039A:  MOVWF  40
039B:  MOVF   79,W
039C:  MOVWF  3F
039D:  MOVF   78,W
039E:  MOVWF  3E
039F:  MOVF   77,W
03A0:  MOVWF  3D
03A1:  CLRF   44
03A2:  CLRF   43
03A3:  MOVLW  08
03A4:  MOVWF  42
03A5:  MOVLW  84
03A6:  MOVWF  41
03A7:  CALL   260
03A8:  MOVF   7A,W
03A9:  MOVWF  34
03AA:  MOVF   79,W
03AB:  MOVWF  33
03AC:  MOVF   78,W
03AD:  MOVWF  32
03AE:  MOVF   77,W
03AF:  MOVWF  31
....................    return distancia; 
03B0:  MOVF   31,W
03B1:  MOVWF  77
03B2:  MOVF   32,W
03B3:  MOVWF  78
03B4:  MOVF   33,W
03B5:  MOVWF  79
03B6:  MOVF   34,W
03B7:  MOVWF  7A
.................... } 
03B8:  BCF    0A.3
03B9:  BCF    0A.4
03BA:  GOTO   5B3 (RETURN)
....................  
....................  
.................... float distancia = 0; 
....................  
.................... void main() {    
*
0588:  CLRF   04
0589:  BCF    03.7
058A:  MOVLW  1F
058B:  ANDWF  03,F
058C:  MOVLW  01
058D:  MOVWF  24
058E:  MOVLW  08
058F:  MOVWF  25
0590:  CLRF   2A
0591:  MOVLW  5B
0592:  MOVWF  29
0593:  MOVLW  8D
0594:  MOVWF  28
0595:  MOVLW  80
0596:  MOVWF  27
0597:  CLRF   2E
0598:  CLRF   2D
0599:  CLRF   2C
059A:  CLRF   2B
059B:  BSF    03.5
059C:  BSF    1F.0
059D:  BSF    1F.1
059E:  BSF    1F.2
059F:  BCF    1F.3
05A0:  MOVLW  07
05A1:  MOVWF  1C
....................    lcd_init(0x4E,16,2); 
*
05A6:  MOVLW  4E
05A7:  MOVWF  2F
05A8:  MOVLW  10
05A9:  MOVWF  30
05AA:  MOVLW  02
05AB:  MOVWF  31
05AC:  GOTO   110
....................    lcd_backlight_led(ON); //Enciende la luz de Fondo 
05AD:  MOVLW  01
05AE:  MOVWF  2F
05AF:  GOTO   181
....................    HCSR04_init(); 
05B0:  GOTO   18B
....................    
....................     while (TRUE) {  
....................       lcd_clear();  //Limpia el LCD 
05B1:  CALL   106
....................       distancia = HCSR04_get_distance(); 
05B2:  GOTO   2D5
05B3:  MOVF   7A,W
05B4:  MOVWF  2E
05B5:  MOVF   79,W
05B6:  MOVWF  2D
05B7:  MOVF   78,W
05B8:  MOVWF  2C
05B9:  MOVF   77,W
05BA:  MOVWF  2B
....................       // Envio de Strings al LCD usando la función printf 
....................       printf(lcd_putc, "\fTeste sensor");  
05BB:  MOVLW  0C
05BC:  BSF    03.6
05BD:  MOVWF  0D
05BE:  MOVLW  00
05BF:  MOVWF  0F
05C0:  BCF    03.6
05C1:  CALL   417
....................       delay_ms(1000);  
05C2:  MOVLW  04
05C3:  MOVWF  2F
05C4:  MOVLW  FA
05C5:  MOVWF  3D
05C6:  CALL   017
05C7:  DECFSZ 2F,F
05C8:  GOTO   5C4
....................       printf(lcd_putc, "\fDis: "); 
05C9:  MOVLW  13
05CA:  BSF    03.6
05CB:  MOVWF  0D
05CC:  MOVLW  00
05CD:  MOVWF  0F
05CE:  BCF    03.6
05CF:  CALL   417
....................       printf(lcd_putc, "%.2f", distancia); 
05D0:  MOVLW  89
05D1:  MOVWF  04
05D2:  MOVF   2E,W
05D3:  MOVWF  32
05D4:  MOVF   2D,W
05D5:  MOVWF  31
05D6:  MOVF   2C,W
05D7:  MOVWF  30
05D8:  MOVF   2B,W
05D9:  MOVWF  2F
05DA:  MOVLW  02
05DB:  MOVWF  33
05DC:  GOTO   49F
....................  
....................       delay_ms(1000);  
05DD:  MOVLW  04
05DE:  MOVWF  2F
05DF:  MOVLW  FA
05E0:  MOVWF  3D
05E1:  CALL   017
05E2:  DECFSZ 2F,F
05E3:  GOTO   5DF
....................     
....................        
....................      
....................     
....................        
....................     
....................     
....................    }     
05E4:  GOTO   5B1
.................... } 
....................  
05E5:  SLEEP

Configuration Fuses:
   Word  1: 3F3A   HS NOWDT NOPUT NODEBUG NOPROTECT NOBROWNOUT NOLVP NOCPD NOWRT
